; Function Attrs: mustprogress uwtable
define hidden void @_ZN10params_ref5resetEPKc(ptr nocapture noundef nonnull readonly align 8 dereferenceable(8) %this, ptr noundef %k) local_unnamed_addr #3 align 2 {
entry:
  %0 = load ptr, ptr %this, align 8
  %tobool.not = icmp eq ptr %0, null
  br i1 %tobool.not, label %if.end, label %if.then

if.then:                                          ; preds = %entry
  tail call void @_ZN6params5resetEPKc(ptr noundef nonnull align 8 dereferenceable(12) %0, ptr noundef %k)
  br label %if.end

if.end:                                           ; preds = %if.then, %entry
  ret void
}